target datalayout = "e-m:e-p270:32:32-p271:32:32-p272:64:64-i64:64-i128:128-f80:128-n8:16:32:64-S128"
target triple = "x86_64-pc-linux-gnu"

; Function Attrs: nounwind uwtable
define i64 @nghttp2_pack_settings_payload2(ptr noundef %0, i64 noundef %1, ptr noundef %2, i64 noundef %3) #0 {
  %5 = alloca i64, align 8
  %6 = alloca ptr, align 8
  %7 = alloca i64, align 8
  %8 = alloca ptr, align 8
  %9 = alloca i64, align 8
  store ptr %0, ptr %6, align 8, !tbaa !43
  store i64 %1, ptr %7, align 8, !tbaa !11
  store ptr %2, ptr %8, align 8, !tbaa !10
  store i64 %3, ptr %9, align 8, !tbaa !11
  %10 = load ptr, ptr %8, align 8, !tbaa !10
  %11 = load i64, ptr %9, align 8, !tbaa !11
  %12 = call i32 @nghttp2_iv_check(ptr noundef %10, i64 noundef %11)
  %13 = icmp ne i32 %12, 0
  br i1 %13, label %15, label %14

14:                                               ; preds = %4
  store i64 -501, ptr %5, align 8
  br label %26

15:                                               ; preds = %4
  %16 = load i64, ptr %7, align 8, !tbaa !11
  %17 = load i64, ptr %9, align 8, !tbaa !11
  %18 = mul i64 %17, 6
  %19 = icmp ult i64 %16, %18
  br i1 %19, label %20, label %21

20:                                               ; preds = %15
  store i64 -525, ptr %5, align 8
  br label %26

21:                                               ; preds = %15
  %22 = load ptr, ptr %6, align 8, !tbaa !43
  %23 = load ptr, ptr %8, align 8, !tbaa !10
  %24 = load i64, ptr %9, align 8, !tbaa !11
  %25 = call i64 @nghttp2_frame_pack_settings_payload(ptr noundef %22, ptr noundef %23, i64 noundef %24)
  store i64 %25, ptr %5, align 8
  br label %26

26:                                               ; preds = %21, %20, %14
  %27 = load i64, ptr %5, align 8
  ret i64 %27
}

; Function Attrs: nounwind uwtable
define i64 @nghttp2_pack_settings_payload(ptr noundef %0, i64 noundef %1, ptr noundef %2, i64 noundef %3) #0 {
  %5 = alloca ptr, align 8
  %6 = alloca i64, align 8
  %7 = alloca ptr, align 8
  %8 = alloca i64, align 8
  store ptr %0, ptr %5, align 8, !tbaa !43
  store i64 %1, ptr %6, align 8, !tbaa !11
  store ptr %2, ptr %7, align 8, !tbaa !10
  store i64 %3, ptr %8, align 8, !tbaa !11
  %9 = load ptr, ptr %5, align 8, !tbaa !43
  %10 = load i64, ptr %6, align 8, !tbaa !11
  %11 = load ptr, ptr %7, align 8, !tbaa !10
  %12 = load i64, ptr %8, align 8, !tbaa !11
  %13 = call i64 @nghttp2_pack_settings_payload2(ptr noundef %9, i64 noundef %10, ptr noundef %11, i64 noundef %12)
  ret i64 %13
}